target datalayout = "e-m:e-p270:32:32-p271:32:32-p272:64:64-i64:64-i128:128-f80:128-n8:16:32:64-S128"
target triple = "x86_64-pc-linux-gnu"

%struct.HashJoinTableData = type { i32, i32, i32, i32, i32, %union.anon, i8, ptr, i32, i32, ptr, i32, i32, i32, i32, i8, double, double, double, ptr, ptr, i64, i64, i64, i64, i64, ptr, ptr, ptr, ptr, ptr, ptr, ptr, ptr, i64 }
%union.anon = type { ptr }
%struct.ParallelHashJoinState = type { i64, i64, i32, i32, i32, i32, i64, i32, i64, i64, %struct.LWLock, %struct.Barrier, %struct.Barrier, %struct.Barrier, %struct.pg_atomic_uint32, %struct.SharedFileSet }
%struct.LWLock = type { i16, %struct.pg_atomic_uint32, %struct.proclist_head }
%struct.proclist_head = type { i32, i32 }
%struct.Barrier = type { i8, i32, i32, i32, i32, i8, %struct.ConditionVariable }
%struct.ConditionVariable = type { i8, %struct.proclist_head }
%struct.pg_atomic_uint32 = type { i32 }
%struct.SharedFileSet = type { %struct.FileSet, i8, i32 }
%struct.FileSet = type { i32, i32, i32, [8 x i32] }
%struct.ParallelHashJoinBatchAccessor = type { ptr, i64, i64, i64, i64, i64, i8, i8, i8, ptr, ptr }
%struct.ParallelHashJoinBatch = type { i64, %struct.Barrier, i64, i64, i64, i64, i64, i8, i8 }

; Function Attrs: nounwind uwtable
define dso_local void @ExecParallelHashTableSetCurrentBatch(ptr noundef %0, i32 noundef %1) #0 {
  %3 = alloca ptr, align 8
  %4 = alloca i32, align 4
  store ptr %0, ptr %3, align 8
  store i32 %1, ptr %4, align 4
  %5 = load i32, ptr %4, align 4
  %6 = load ptr, ptr %3, align 8
  %7 = getelementptr inbounds nuw %struct.HashJoinTableData, ptr %6, i32 0, i32 12
  store i32 %5, ptr %7, align 4
  %8 = load ptr, ptr %3, align 8
  %9 = getelementptr inbounds nuw %struct.HashJoinTableData, ptr %8, i32 0, i32 31
  %10 = load ptr, ptr %9, align 8
  %11 = load ptr, ptr %3, align 8
  %12 = getelementptr inbounds nuw %struct.HashJoinTableData, ptr %11, i32 0, i32 33
  %13 = load ptr, ptr %12, align 8
  %14 = load i32, ptr %4, align 4
  %15 = sext i32 %14 to i64
  %16 = getelementptr inbounds %struct.ParallelHashJoinBatchAccessor, ptr %13, i64 %15
  %17 = getelementptr inbounds nuw %struct.ParallelHashJoinBatchAccessor, ptr %16, i32 0, i32 0
  %18 = load ptr, ptr %17, align 8
  %19 = getelementptr inbounds nuw %struct.ParallelHashJoinBatch, ptr %18, i32 0, i32 0
  %20 = load i64, ptr %19, align 8
  %21 = call ptr @dsa_get_address(ptr noundef %10, i64 noundef %20)
  %22 = load ptr, ptr %3, align 8
  %23 = getelementptr inbounds nuw %struct.HashJoinTableData, ptr %22, i32 0, i32 5
  store ptr %21, ptr %23, align 8
  %24 = load ptr, ptr %3, align 8
  %25 = getelementptr inbounds nuw %struct.HashJoinTableData, ptr %24, i32 0, i32 32
  %26 = load ptr, ptr %25, align 8
  %27 = getelementptr inbounds nuw %struct.ParallelHashJoinState, ptr %26, i32 0, i32 4
  %28 = load i32, ptr %27, align 8
  %29 = load ptr, ptr %3, align 8
  %30 = getelementptr inbounds nuw %struct.HashJoinTableData, ptr %29, i32 0, i32 0
  store i32 %28, ptr %30, align 8
  %31 = load ptr, ptr %3, align 8
  %32 = getelementptr inbounds nuw %struct.HashJoinTableData, ptr %31, i32 0, i32 0
  %33 = load i32, ptr %32, align 8
  %34 = sext i32 %33 to i64
  %35 = call i32 @my_log2(i64 noundef %34)
  %36 = load ptr, ptr %3, align 8
  %37 = getelementptr inbounds nuw %struct.HashJoinTableData, ptr %36, i32 0, i32 1
  store i32 %35, ptr %37, align 4
  %38 = load ptr, ptr %3, align 8
  %39 = getelementptr inbounds nuw %struct.HashJoinTableData, ptr %38, i32 0, i32 30
  store ptr null, ptr %39, align 8
  %40 = load ptr, ptr %3, align 8
  %41 = getelementptr inbounds nuw %struct.HashJoinTableData, ptr %40, i32 0, i32 34
  store i64 0, ptr %41, align 8
  %42 = load ptr, ptr %3, align 8
  %43 = getelementptr inbounds nuw %struct.HashJoinTableData, ptr %42, i32 0, i32 33
  %44 = load ptr, ptr %43, align 8
  %45 = load i32, ptr %4, align 4
  %46 = sext i32 %45 to i64
  %47 = getelementptr inbounds %struct.ParallelHashJoinBatchAccessor, ptr %44, i64 %46
  %48 = getelementptr inbounds nuw %struct.ParallelHashJoinBatchAccessor, ptr %47, i32 0, i32 6
  store i8 0, ptr %48, align 8
  ret void
}