; Function Attrs: nounwind uwtable
define dso_local void @ExecParallelHashTableSetCurrentBatch(ptr noundef captures(none) initializes((0, 8), (24, 32), (68, 72), (200, 208), (232, 240)) %0, i32 noundef %1) local_unnamed_addr #0 {
  %3 = getelementptr inbounds nuw i8, ptr %0, i64 68
  store i32 %1, ptr %3, align 4
  %4 = getelementptr inbounds nuw i8, ptr %0, i64 208
  %5 = load ptr, ptr %4, align 8
  %6 = getelementptr inbounds nuw i8, ptr %0, i64 224
  %7 = load ptr, ptr %6, align 8
  %8 = sext i32 %1 to i64
  %9 = getelementptr inbounds %struct.ParallelHashJoinBatchAccessor, ptr %7, i64 %8
  %10 = load ptr, ptr %9, align 8
  %11 = load i64, ptr %10, align 8
  %12 = tail call ptr @dsa_get_address(ptr noundef %5, i64 noundef %11) #16
  %13 = getelementptr inbounds nuw i8, ptr %0, i64 24
  store ptr %12, ptr %13, align 8
  %14 = getelementptr inbounds nuw i8, ptr %0, i64 216
  %15 = load ptr, ptr %14, align 8
  %16 = getelementptr inbounds nuw i8, ptr %15, i64 24
  %17 = load i32, ptr %16, align 8
  store i32 %17, ptr %0, align 8
  %18 = sext i32 %17 to i64
  %19 = tail call i32 @my_log2(i64 noundef %18) #16
  %20 = getelementptr inbounds nuw i8, ptr %0, i64 4
  store i32 %19, ptr %20, align 4
  %21 = getelementptr inbounds nuw i8, ptr %0, i64 200
  store ptr null, ptr %21, align 8
  %22 = getelementptr inbounds nuw i8, ptr %0, i64 232
  store i64 0, ptr %22, align 8
  %23 = load ptr, ptr %6, align 8
  %24 = getelementptr inbounds %struct.ParallelHashJoinBatchAccessor, ptr %23, i64 %8, i32 6
  store i8 0, ptr %24, align 8
  ret void
}